; Function Attrs: mustprogress uwtable
define noundef i32 @_ZN11colvarparse11check_asciiERKNSt7__cxx1112basic_stringIcSt11char_traitsIcESaIcEEE(ptr noundef nonnull align 8 dereferenceable(32) %0) local_unnamed_addr #2 align 2 personality ptr @__gxx_personality_v0 {
  %2 = alloca %"class.std::allocator.8", align 1
  %3 = alloca %"class.std::allocator.8", align 1
  %4 = alloca %"class.std::__cxx11::basic_string", align 8
  %5 = alloca %"class.std::__cxx11::basic_istringstream", align 8
  %6 = alloca %"class.std::__cxx11::basic_string", align 8
  %7 = alloca %"class.std::__cxx11::basic_string", align 8
  call void @_ZNSt7__cxx1112basic_stringIcSt11char_traitsIcESaIcEEC1Ev(ptr noundef nonnull align 8 dereferenceable(32) %4) #15
  invoke void @_ZNSt7__cxx1119basic_istringstreamIcSt11char_traitsIcESaIcEEC1ERKNS_12basic_stringIcS2_S3_EESt13_Ios_Openmode(ptr noundef nonnull align 8 dereferenceable(120) %5, ptr noundef nonnull align 8 dereferenceable(32) %0, i32 noundef 8)
          to label %.preheader unwind label %34

.loopexit:                                        ; preds = %43, %16
  br label %.preheader, !llvm.loop !200

.preheader:                                       ; preds = %1, %.loopexit
  %8 = invoke noundef nonnull align 8 dereferenceable(16) ptr @_ZN12colvarmodule7getlineERSiRNSt7__cxx1112basic_stringIcSt11char_traitsIcESaIcEEE(ptr noundef nonnull align 8 dereferenceable(16) %5, ptr noundef nonnull align 8 dereferenceable(32) %4)
          to label %9 unwind label %36

9:                                                ; preds = %.preheader
  %10 = load ptr, ptr %8, align 8
  %11 = getelementptr i8, ptr %10, i64 -24
  %12 = load i64, ptr %11, align 8
  %13 = getelementptr inbounds i8, ptr %8, i64 %12
  %14 = invoke noundef zeroext i1 @_ZNKSt9basic_iosIcSt11char_traitsIcEEcvbEv(ptr noundef nonnull align 8 dereferenceable(264) %13)
          to label %15 unwind label %36

15:                                               ; preds = %9
  br i1 %14, label %16, label %47

16:                                               ; preds = %15
  %17 = call noundef ptr @_ZNKSt7__cxx1112basic_stringIcSt11char_traitsIcESaIcEE5c_strEv(ptr noundef nonnull align 8 dereferenceable(32) %4) #15
  %18 = call noundef i64 @_ZNKSt7__cxx1112basic_stringIcSt11char_traitsIcESaIcEE4sizeEv(ptr noundef nonnull align 8 dereferenceable(32) %4) #15
  %.not14 = icmp eq i64 %18, 0
  br i1 %.not14, label %.loopexit, label %.lr.ph

.lr.ph:                                           ; preds = %16, %43
  %.013 = phi i64 [ %44, %43 ], [ 0, %16 ]
  %19 = getelementptr inbounds i8, ptr %17, i64 %.013
  %20 = load i8, ptr %19, align 1
  %.not = icmp sgt i8 %20, -1
  br i1 %.not, label %43, label %21

21:                                               ; preds = %.lr.ph
  call void @llvm.lifetime.start.p0(i64 1, ptr nonnull %2)
  call void @llvm.lifetime.start.p0(i64 1, ptr nonnull %3)
  call void @_ZNKSt7__cxx1112basic_stringIcSt11char_traitsIcESaIcEE13get_allocatorEv(ptr dead_on_unwind nonnull writable sret(%"class.std::allocator.8") align 1 %3, ptr noundef nonnull align 8 dereferenceable(32) %4) #15, !noalias !201
  call void @_ZNSaIcEC1ERKS_(ptr noundef nonnull align 1 dereferenceable(1) %2, ptr noundef nonnull align 1 dereferenceable(1) %3) #15, !noalias !201
  call void @_ZNSt7__cxx1112basic_stringIcSt11char_traitsIcESaIcEEC1ERKS3_(ptr noundef nonnull align 8 dereferenceable(32) %7, ptr noundef nonnull align 1 dereferenceable(1) %2) #15
  call void @_ZNSaIcED1Ev(ptr noundef nonnull align 1 dereferenceable(1) %2) #15
  call void @_ZNSaIcED1Ev(ptr noundef nonnull align 1 dereferenceable(1) %3) #15
  %22 = call noundef i64 @_ZNKSt7__cxx1112basic_stringIcSt11char_traitsIcESaIcEE4sizeEv(ptr noundef nonnull align 8 dereferenceable(32) %4) #15
  %23 = add i64 %22, 53
  invoke void @_ZNSt7__cxx1112basic_stringIcSt11char_traitsIcESaIcEE7reserveEm(ptr noundef nonnull align 8 dereferenceable(32) %7, i64 noundef %23)
          to label %24 unwind label %28

24:                                               ; preds = %21
  %25 = invoke noundef nonnull align 8 dereferenceable(32) ptr @_ZNSt7__cxx1112basic_stringIcSt11char_traitsIcESaIcEE6appendEPKcm(ptr noundef nonnull align 8 dereferenceable(32) %7, ptr noundef nonnull @.str.45, i64 noundef 53)
          to label %26 unwind label %28

26:                                               ; preds = %24
  %27 = invoke noundef nonnull align 8 dereferenceable(32) ptr @_ZNSt7__cxx1112basic_stringIcSt11char_traitsIcESaIcEE6appendERKS4_(ptr noundef nonnull align 8 dereferenceable(32) %7, ptr noundef nonnull align 8 dereferenceable(32) %4)
          to label %30 unwind label %28

28:                                               ; preds = %26, %24, %21
  %29 = landingpad { ptr, i32 }
          cleanup
  call void @_ZNSt7__cxx1112basic_stringIcSt11char_traitsIcESaIcEED1Ev(ptr noundef nonnull align 8 dereferenceable(32) %7) #15
  br label %.body

30:                                               ; preds = %26
  call void @llvm.lifetime.end.p0(i64 1, ptr nonnull %2)
  call void @llvm.lifetime.end.p0(i64 1, ptr nonnull %3)
  %31 = invoke noundef nonnull align 8 dereferenceable(32) ptr @_ZNSt7__cxx1112basic_stringIcSt11char_traitsIcESaIcEE6appendEPKc(ptr noundef nonnull align 8 dereferenceable(32) %7, ptr noundef nonnull @.str.7)
          to label %32 unwind label %38

32:                                               ; preds = %30
  call void @_ZNSt7__cxx1112basic_stringIcSt11char_traitsIcESaIcEEC1EOS4_(ptr noundef nonnull align 8 dereferenceable(32) %6, ptr noundef nonnull align 8 dereferenceable(32) %31) #15
  invoke void @_ZN12colvarmodule3logERKNSt7__cxx1112basic_stringIcSt11char_traitsIcESaIcEEEi(ptr noundef nonnull align 8 dereferenceable(32) %6, i32 noundef 10)
          to label %33 unwind label %40

33:                                               ; preds = %32
  call void @_ZNSt7__cxx1112basic_stringIcSt11char_traitsIcESaIcEED1Ev(ptr noundef nonnull align 8 dereferenceable(32) %6) #15
  call void @_ZNSt7__cxx1112basic_stringIcSt11char_traitsIcESaIcEED1Ev(ptr noundef nonnull align 8 dereferenceable(32) %7) #15
  br label %43

34:                                               ; preds = %1
  %35 = landingpad { ptr, i32 }
          cleanup
  br label %48

36:                                               ; preds = %9, %.preheader
  %37 = landingpad { ptr, i32 }
          cleanup
  br label %.body

38:                                               ; preds = %30
  %39 = landingpad { ptr, i32 }
          cleanup
  br label %42

40:                                               ; preds = %32
  %41 = landingpad { ptr, i32 }
          cleanup
  call void @_ZNSt7__cxx1112basic_stringIcSt11char_traitsIcESaIcEED1Ev(ptr noundef nonnull align 8 dereferenceable(32) %6) #15
  br label %42

42:                                               ; preds = %40, %38
  %.pn = phi { ptr, i32 } [ %41, %40 ], [ %39, %38 ]
  call void @_ZNSt7__cxx1112basic_stringIcSt11char_traitsIcESaIcEED1Ev(ptr noundef nonnull align 8 dereferenceable(32) %7) #15
  br label %.body

43:                                               ; preds = %.lr.ph, %33
  %44 = add nuw i64 %.013, 1
  %45 = call noundef i64 @_ZNKSt7__cxx1112basic_stringIcSt11char_traitsIcESaIcEE4sizeEv(ptr noundef nonnull align 8 dereferenceable(32) %4) #15
  %46 = icmp ult i64 %44, %45
  br i1 %46, label %.lr.ph, label %.loopexit, !llvm.loop !204

47:                                               ; preds = %15
  call void @_ZNSt7__cxx1119basic_istringstreamIcSt11char_traitsIcESaIcEED1Ev(ptr noundef nonnull align 8 dereferenceable(120) %5) #15
  call void @_ZNSt7__cxx1112basic_stringIcSt11char_traitsIcESaIcEED1Ev(ptr noundef nonnull align 8 dereferenceable(32) %4) #15
  ret i32 0

.body:                                            ; preds = %36, %28, %42
  %.pn.pn = phi { ptr, i32 } [ %.pn, %42 ], [ %37, %36 ], [ %29, %28 ]
  call void @_ZNSt7__cxx1119basic_istringstreamIcSt11char_traitsIcESaIcEED1Ev(ptr noundef nonnull align 8 dereferenceable(120) %5) #15
  br label %48

48:                                               ; preds = %.body, %34
  %.pn.pn.pn = phi { ptr, i32 } [ %.pn.pn, %.body ], [ %35, %34 ]
  call void @_ZNSt7__cxx1112basic_stringIcSt11char_traitsIcESaIcEED1Ev(ptr noundef nonnull align 8 dereferenceable(32) %4) #15
  resume { ptr, i32 } %.pn.pn.pn
}